target datalayout = "e-m:e-p270:32:32-p271:32:32-p272:64:64-i64:64-i128:128-f80:128-n8:16:32:64-S128"
target triple = "x86_64-pc-linux-gnu"

%struct._zval_struct = type { %union._zend_value, %union.anon, %union.anon.2 }
%union._zend_value = type { i64 }
%union.anon = type { i32 }
%union.anon.2 = type { i32 }
%struct._zend_array = type { %struct._zend_refcounted_h, %union.anon.5, i32, %union.anon.7, i32, i32, i32, i32, i64, ptr }
%struct._zend_refcounted_h = type { i32, %union.anon.3 }
%union.anon.3 = type { i32 }
%union.anon.5 = type { i32 }
%union.anon.7 = type { ptr }
%struct._zend_object_handlers = type { i32, ptr, ptr, ptr, ptr, ptr, ptr, ptr, ptr, ptr, ptr, ptr, ptr, ptr, ptr, ptr, ptr, ptr, ptr, ptr, ptr, ptr, ptr, ptr, ptr }
%struct._zend_object = type { %struct._zend_refcounted_h, i32, i32, ptr, ptr, ptr, [1 x %struct._zval_struct] }
%struct.anon.0 = type { i8, i8, %union.anon.1 }
%union.anon.1 = type { i16 }
%struct._zend_reference = type { %struct._zend_refcounted_h, %struct._zval_struct, %union.zend_property_info_source_list }
%union.zend_property_info_source_list = type { ptr }
%struct._zend_refcounted = type { %struct._zend_refcounted_h }

@zend_known_strings = external global ptr, align 8
@zend_standard_class_def = external global ptr, align 8

; Function Attrs: alwaysinline nounwind uwtable
define internal i32 @zend_gc_refcount(ptr noundef %0) #1 {
  %2 = alloca ptr, align 8
  store ptr %0, ptr %2, align 8, !tbaa !96
  %3 = load ptr, ptr %2, align 8, !tbaa !96
  %4 = getelementptr inbounds nuw %struct._zend_refcounted_h, ptr %3, i32 0, i32 0
  %5 = load i32, ptr %4, align 4, !tbaa !98
  ret i32 %5
}

; Function Attrs: alwaysinline nounwind uwtable
define internal i32 @zend_gc_addref(ptr noundef %0) #1 {
  %2 = alloca ptr, align 8
  store ptr %0, ptr %2, align 8, !tbaa !96
  br label %3

3:                                                ; preds = %1
  br label %4

4:                                                ; preds = %3
  %5 = load ptr, ptr %2, align 8, !tbaa !96
  %6 = getelementptr inbounds nuw %struct._zend_refcounted_h, ptr %5, i32 0, i32 0
  %7 = load i32, ptr %6, align 4, !tbaa !98
  %8 = add i32 %7, 1
  store i32 %8, ptr %6, align 4, !tbaa !98
  ret i32 %8
}

; Function Attrs: alwaysinline nounwind uwtable
define internal i32 @zval_delref_p(ptr noundef %0) #1 {
  %2 = alloca ptr, align 8
  store ptr %0, ptr %2, align 8, !tbaa !12
  %3 = load ptr, ptr %2, align 8, !tbaa !12
  %4 = getelementptr inbounds nuw %struct._zval_struct, ptr %3, i32 0, i32 1
  %5 = getelementptr inbounds nuw %struct.anon.0, ptr %4, i32 0, i32 1
  %6 = load i8, ptr %5, align 1, !tbaa !11
  %7 = zext i8 %6 to i32
  %8 = icmp ne i32 %7, 0
  call void @llvm.assume(i1 %8)
  %9 = load ptr, ptr %2, align 8, !tbaa !12
  %10 = getelementptr inbounds nuw %struct._zval_struct, ptr %9, i32 0, i32 0
  %11 = load ptr, ptr %10, align 8, !tbaa !11
  %12 = getelementptr inbounds nuw %struct._zend_refcounted, ptr %11, i32 0, i32 0
  %13 = call i32 @zend_gc_delref(ptr noundef %12)
  ret i32 %13
}

; Function Attrs: alwaysinline nounwind uwtable
define internal i32 @zval_refcount_p(ptr noundef %0) #1 {
  %2 = alloca ptr, align 8
  store ptr %0, ptr %2, align 8, !tbaa !12
  %3 = load ptr, ptr %2, align 8, !tbaa !12
  %4 = getelementptr inbounds nuw %struct._zval_struct, ptr %3, i32 0, i32 0
  %5 = load ptr, ptr %4, align 8, !tbaa !11
  %6 = getelementptr inbounds nuw %struct._zend_refcounted, ptr %5, i32 0, i32 0
  %7 = call i32 @zend_gc_refcount(ptr noundef %6)
  ret i32 %7
}

; Function Attrs: alwaysinline nounwind uwtable
define internal void @zend_unwrap_reference(ptr noundef %0) #1 {
  %2 = alloca ptr, align 8
  %3 = alloca ptr, align 8
  %4 = alloca ptr, align 8
  %5 = alloca ptr, align 8
  %6 = alloca ptr, align 8
  %7 = alloca ptr, align 8
  %8 = alloca i32, align 4
  %9 = alloca ptr, align 8
  %10 = alloca ptr, align 8
  %11 = alloca ptr, align 8
  %12 = alloca i32, align 4
  store ptr %0, ptr %2, align 8, !tbaa !12
  %13 = load ptr, ptr %2, align 8, !tbaa !12
  %14 = call i32 @zval_refcount_p(ptr noundef %13)
  %15 = icmp eq i32 %14, 1
  br i1 %15, label %16, label %48

16:                                               ; preds = %1
  br label %17

17:                                               ; preds = %16
  call void @llvm.lifetime.start.p0(i64 8, ptr %3) #20
  %18 = load ptr, ptr %2, align 8, !tbaa !12
  store ptr %18, ptr %3, align 8, !tbaa !12
  call void @llvm.lifetime.start.p0(i64 8, ptr %4) #20
  %19 = load ptr, ptr %3, align 8, !tbaa !12
  %20 = getelementptr inbounds nuw %struct._zval_struct, ptr %19, i32 0, i32 0
  %21 = load ptr, ptr %20, align 8, !tbaa !11
  store ptr %21, ptr %4, align 8, !tbaa !45
  br label %22

22:                                               ; preds = %17
  call void @llvm.lifetime.start.p0(i64 8, ptr %5) #20
  %23 = load ptr, ptr %3, align 8, !tbaa !12
  store ptr %23, ptr %5, align 8, !tbaa !12
  call void @llvm.lifetime.start.p0(i64 8, ptr %6) #20
  %24 = load ptr, ptr %4, align 8, !tbaa !45
  %25 = getelementptr inbounds nuw %struct._zend_reference, ptr %24, i32 0, i32 1
  store ptr %25, ptr %6, align 8, !tbaa !12
  call void @llvm.lifetime.start.p0(i64 8, ptr %7) #20
  %26 = load ptr, ptr %6, align 8, !tbaa !12
  %27 = getelementptr inbounds nuw %struct._zval_struct, ptr %26, i32 0, i32 0
  %28 = load ptr, ptr %27, align 8, !tbaa !11
  store ptr %28, ptr %7, align 8, !tbaa !42
  call void @llvm.lifetime.start.p0(i64 4, ptr %8) #20
  %29 = load ptr, ptr %6, align 8, !tbaa !12
  %30 = getelementptr inbounds nuw %struct._zval_struct, ptr %29, i32 0, i32 1
  %31 = load i32, ptr %30, align 8, !tbaa !11
  store i32 %31, ptr %8, align 4, !tbaa !44
  br label %32

32:                                               ; preds = %22
  %33 = load ptr, ptr %7, align 8, !tbaa !42
  %34 = load ptr, ptr %5, align 8, !tbaa !12
  %35 = getelementptr inbounds nuw %struct._zval_struct, ptr %34, i32 0, i32 0
  store ptr %33, ptr %35, align 8, !tbaa !11
  %36 = load i32, ptr %8, align 4, !tbaa !44
  %37 = load ptr, ptr %5, align 8, !tbaa !12
  %38 = getelementptr inbounds nuw %struct._zval_struct, ptr %37, i32 0, i32 1
  store i32 %36, ptr %38, align 8, !tbaa !11
  br label %39

39:                                               ; preds = %32
  br label %40

40:                                               ; preds = %39
  call void @llvm.lifetime.end.p0(i64 4, ptr %8) #20
  call void @llvm.lifetime.end.p0(i64 8, ptr %7) #20
  call void @llvm.lifetime.end.p0(i64 8, ptr %6) #20
  call void @llvm.lifetime.end.p0(i64 8, ptr %5) #20
  br label %41

41:                                               ; preds = %40
  br label %42

42:                                               ; preds = %41
  br label %43

43:                                               ; preds = %42
  %44 = load ptr, ptr %4, align 8, !tbaa !45
  call void @_efree_32(ptr noundef %44)
  br label %45

45:                                               ; preds = %43
  br label %46

46:                                               ; preds = %45
  call void @llvm.lifetime.end.p0(i64 8, ptr %4) #20
  call void @llvm.lifetime.end.p0(i64 8, ptr %3) #20
  br label %47

47:                                               ; preds = %46
  br label %81

48:                                               ; preds = %1
  %49 = load ptr, ptr %2, align 8, !tbaa !12
  %50 = call i32 @zval_delref_p(ptr noundef %49)
  br label %51

51:                                               ; preds = %48
  call void @llvm.lifetime.start.p0(i64 8, ptr %9) #20
  %52 = load ptr, ptr %2, align 8, !tbaa !12
  store ptr %52, ptr %9, align 8, !tbaa !12
  call void @llvm.lifetime.start.p0(i64 8, ptr %10) #20
  %53 = load ptr, ptr %2, align 8, !tbaa !12
  %54 = getelementptr inbounds nuw %struct._zval_struct, ptr %53, i32 0, i32 0
  %55 = load ptr, ptr %54, align 8, !tbaa !11
  %56 = getelementptr inbounds nuw %struct._zend_reference, ptr %55, i32 0, i32 1
  store ptr %56, ptr %10, align 8, !tbaa !12
  call void @llvm.lifetime.start.p0(i64 8, ptr %11) #20
  %57 = load ptr, ptr %10, align 8, !tbaa !12
  %58 = getelementptr inbounds nuw %struct._zval_struct, ptr %57, i32 0, i32 0
  %59 = load ptr, ptr %58, align 8, !tbaa !11
  store ptr %59, ptr %11, align 8, !tbaa !42
  call void @llvm.lifetime.start.p0(i64 4, ptr %12) #20
  %60 = load ptr, ptr %10, align 8, !tbaa !12
  %61 = getelementptr inbounds nuw %struct._zval_struct, ptr %60, i32 0, i32 1
  %62 = load i32, ptr %61, align 8, !tbaa !11
  store i32 %62, ptr %12, align 4, !tbaa !44
  br label %63

63:                                               ; preds = %51
  %64 = load ptr, ptr %11, align 8, !tbaa !42
  %65 = load ptr, ptr %9, align 8, !tbaa !12
  %66 = getelementptr inbounds nuw %struct._zval_struct, ptr %65, i32 0, i32 0
  store ptr %64, ptr %66, align 8, !tbaa !11
  %67 = load i32, ptr %12, align 4, !tbaa !44
  %68 = load ptr, ptr %9, align 8, !tbaa !12
  %69 = getelementptr inbounds nuw %struct._zval_struct, ptr %68, i32 0, i32 1
  store i32 %67, ptr %69, align 8, !tbaa !11
  br label %70

70:                                               ; preds = %63
  br label %71

71:                                               ; preds = %70
  %72 = load i32, ptr %12, align 4, !tbaa !44
  %73 = and i32 %72, 65280
  %74 = icmp ne i32 %73, 0
  br i1 %74, label %75, label %79

75:                                               ; preds = %71
  %76 = load ptr, ptr %11, align 8, !tbaa !42
  %77 = getelementptr inbounds nuw %struct._zend_refcounted, ptr %76, i32 0, i32 0
  %78 = call i32 @zend_gc_addref(ptr noundef %77)
  br label %79

79:                                               ; preds = %75, %71
  call void @llvm.lifetime.end.p0(i64 4, ptr %12) #20
  call void @llvm.lifetime.end.p0(i64 8, ptr %11) #20
  call void @llvm.lifetime.end.p0(i64 8, ptr %10) #20
  call void @llvm.lifetime.end.p0(i64 8, ptr %9) #20
  br label %80

80:                                               ; preds = %79
  br label %81

81:                                               ; preds = %80, %47
  ret void
}

; Function Attrs: alwaysinline nounwind uwtable
define internal i32 @zend_gc_delref(ptr noundef %0) #1 {
  %2 = alloca ptr, align 8
  store ptr %0, ptr %2, align 8, !tbaa !96
  %3 = load ptr, ptr %2, align 8, !tbaa !96
  %4 = getelementptr inbounds nuw %struct._zend_refcounted_h, ptr %3, i32 0, i32 0
  %5 = load i32, ptr %4, align 4, !tbaa !98
  %6 = icmp ugt i32 %5, 0
  call void @llvm.assume(i1 %6)
  br label %7

7:                                                ; preds = %1
  br label %8

8:                                                ; preds = %7
  %9 = load ptr, ptr %2, align 8, !tbaa !96
  %10 = getelementptr inbounds nuw %struct._zend_refcounted_h, ptr %9, i32 0, i32 0
  %11 = load i32, ptr %10, align 4, !tbaa !98
  %12 = add i32 %11, -1
  store i32 %12, ptr %10, align 4, !tbaa !98
  ret i32 %12
}

; Function Attrs: alwaysinline nounwind uwtable
define internal i32 @zval_gc_flags(i32 noundef %0) #1 {
  %2 = alloca i32, align 4
  store i32 %0, ptr %2, align 4, !tbaa !44
  %3 = load i32, ptr %2, align 4, !tbaa !44
  %4 = lshr i32 %3, 0
  %5 = and i32 %4, 1008
  ret i32 %5
}

; Function Attrs: alwaysinline nounwind uwtable
define internal zeroext i8 @zval_get_type(ptr noundef %0) #1 {
  %2 = alloca ptr, align 8
  store ptr %0, ptr %2, align 8, !tbaa !12
  %3 = load ptr, ptr %2, align 8, !tbaa !12
  %4 = getelementptr inbounds nuw %struct._zval_struct, ptr %3, i32 0, i32 1
  %5 = getelementptr inbounds nuw %struct.anon.0, ptr %4, i32 0, i32 0
  %6 = load i8, ptr %5, align 8, !tbaa !11
  ret i8 %6
}

; Function Attrs: nounwind uwtable
define dso_local void @convert_to_object(ptr noundef %0) #0 {
  %2 = alloca ptr, align 8
  %3 = alloca ptr, align 8
  %4 = alloca ptr, align 8
  %5 = alloca ptr, align 8
  %6 = alloca %struct._zval_struct, align 8
  %7 = alloca ptr, align 8
  %8 = alloca ptr, align 8
  %9 = alloca ptr, align 8
  %10 = alloca i32, align 4
  store ptr %0, ptr %2, align 8, !tbaa !12
  br label %11

11:                                               ; preds = %60, %1
  %12 = load ptr, ptr %2, align 8, !tbaa !12
  %13 = call zeroext i8 @zval_get_type(ptr noundef %12)
  %14 = zext i8 %13 to i32
  switch i32 %14, label %62 [
    i32 7, label %15
    i32 8, label %98
    i32 1, label %58
    i32 10, label %60
  ]

15:                                               ; preds = %11
  call void @llvm.lifetime.start.p0(i64 8, ptr %3) #20
  %16 = load ptr, ptr %2, align 8, !tbaa !12
  %17 = getelementptr inbounds nuw %struct._zval_struct, ptr %16, i32 0, i32 0
  %18 = load ptr, ptr %17, align 8, !tbaa !11
  %19 = call ptr @zend_symtable_to_proptable(ptr noundef %18)
  store ptr %19, ptr %3, align 8, !tbaa !84
  call void @llvm.lifetime.start.p0(i64 8, ptr %4) #20
  %20 = load ptr, ptr %3, align 8, !tbaa !84
  %21 = getelementptr inbounds nuw %struct._zend_array, ptr %20, i32 0, i32 0
  %22 = getelementptr inbounds nuw %struct._zend_refcounted_h, ptr %21, i32 0, i32 1
  %23 = load i32, ptr %22, align 4, !tbaa !11
  %24 = call i32 @zval_gc_flags(i32 noundef %23)
  %25 = and i32 %24, 64
  %26 = icmp ne i32 %25, 0
  br i1 %26, label %27, label %30

27:                                               ; preds = %15
  %28 = load ptr, ptr %3, align 8, !tbaa !84
  %29 = call ptr @zend_array_dup(ptr noundef %28)
  store ptr %29, ptr %3, align 8, !tbaa !84
  br label %43

30:                                               ; preds = %15
  %31 = load ptr, ptr %3, align 8, !tbaa !84
  %32 = load ptr, ptr %2, align 8, !tbaa !12
  %33 = getelementptr inbounds nuw %struct._zval_struct, ptr %32, i32 0, i32 0
  %34 = load ptr, ptr %33, align 8, !tbaa !11
  %35 = icmp ne ptr %31, %34
  br i1 %35, label %36, label %38

36:                                               ; preds = %30
  %37 = load ptr, ptr %2, align 8, !tbaa !12
  call void @zval_ptr_dtor(ptr noundef %37)
  br label %42

38:                                               ; preds = %30
  %39 = load ptr, ptr %3, align 8, !tbaa !84
  %40 = getelementptr inbounds nuw %struct._zend_array, ptr %39, i32 0, i32 0
  %41 = call i32 @zend_gc_delref(ptr noundef %40)
  br label %42

42:                                               ; preds = %38, %36
  br label %43

43:                                               ; preds = %42, %27
  %44 = load ptr, ptr @zend_standard_class_def, align 8, !tbaa !89
  %45 = call ptr @zend_objects_new(ptr noundef %44)
  store ptr %45, ptr %4, align 8, !tbaa !94
  %46 = load ptr, ptr %3, align 8, !tbaa !84
  %47 = load ptr, ptr %4, align 8, !tbaa !94
  %48 = getelementptr inbounds nuw %struct._zend_object, ptr %47, i32 0, i32 5
  store ptr %46, ptr %48, align 8, !tbaa !90
  br label %49

49:                                               ; preds = %43
  call void @llvm.lifetime.start.p0(i64 8, ptr %5) #20
  %50 = load ptr, ptr %2, align 8, !tbaa !12
  store ptr %50, ptr %5, align 8, !tbaa !12
  %51 = load ptr, ptr %4, align 8, !tbaa !94
  %52 = load ptr, ptr %5, align 8, !tbaa !12
  %53 = getelementptr inbounds nuw %struct._zval_struct, ptr %52, i32 0, i32 0
  store ptr %51, ptr %53, align 8, !tbaa !11
  %54 = load ptr, ptr %5, align 8, !tbaa !12
  %55 = getelementptr inbounds nuw %struct._zval_struct, ptr %54, i32 0, i32 1
  store i32 776, ptr %55, align 8, !tbaa !11
  call void @llvm.lifetime.end.p0(i64 8, ptr %5) #20
  br label %56

56:                                               ; preds = %49
  br label %57

57:                                               ; preds = %56
  call void @llvm.lifetime.end.p0(i64 8, ptr %4) #20
  call void @llvm.lifetime.end.p0(i64 8, ptr %3) #20
  br label %98

58:                                               ; preds = %11
  %59 = load ptr, ptr %2, align 8, !tbaa !12
  call void @object_init(ptr noundef %59)
  br label %98

60:                                               ; preds = %11
  %61 = load ptr, ptr %2, align 8, !tbaa !12
  call void @zend_unwrap_reference(ptr noundef %61)
  br label %11

62:                                               ; preds = %11
  call void @llvm.lifetime.start.p0(i64 16, ptr %6) #20
  br label %63

63:                                               ; preds = %62
  call void @llvm.lifetime.start.p0(i64 8, ptr %7) #20
  store ptr %6, ptr %7, align 8, !tbaa !12
  call void @llvm.lifetime.start.p0(i64 8, ptr %8) #20
  %64 = load ptr, ptr %2, align 8, !tbaa !12
  store ptr %64, ptr %8, align 8, !tbaa !12
  call void @llvm.lifetime.start.p0(i64 8, ptr %9) #20
  %65 = load ptr, ptr %8, align 8, !tbaa !12
  %66 = getelementptr inbounds nuw %struct._zval_struct, ptr %65, i32 0, i32 0
  %67 = load ptr, ptr %66, align 8, !tbaa !11
  store ptr %67, ptr %9, align 8, !tbaa !42
  call void @llvm.lifetime.start.p0(i64 4, ptr %10) #20
  %68 = load ptr, ptr %8, align 8, !tbaa !12
  %69 = getelementptr inbounds nuw %struct._zval_struct, ptr %68, i32 0, i32 1
  %70 = load i32, ptr %69, align 8, !tbaa !11
  store i32 %70, ptr %10, align 4, !tbaa !44
  br label %71

71:                                               ; preds = %63
  %72 = load ptr, ptr %9, align 8, !tbaa !42
  %73 = load ptr, ptr %7, align 8, !tbaa !12
  %74 = getelementptr inbounds nuw %struct._zval_struct, ptr %73, i32 0, i32 0
  store ptr %72, ptr %74, align 8, !tbaa !11
  %75 = load i32, ptr %10, align 4, !tbaa !44
  %76 = load ptr, ptr %7, align 8, !tbaa !12
  %77 = getelementptr inbounds nuw %struct._zval_struct, ptr %76, i32 0, i32 1
  store i32 %75, ptr %77, align 8, !tbaa !11
  br label %78

78:                                               ; preds = %71
  br label %79

79:                                               ; preds = %78
  call void @llvm.lifetime.end.p0(i64 4, ptr %10) #20
  call void @llvm.lifetime.end.p0(i64 8, ptr %9) #20
  call void @llvm.lifetime.end.p0(i64 8, ptr %8) #20
  call void @llvm.lifetime.end.p0(i64 8, ptr %7) #20
  br label %80

80:                                               ; preds = %79
  br label %81

81:                                               ; preds = %80
  %82 = load ptr, ptr %2, align 8, !tbaa !12
  call void @object_init(ptr noundef %82)
  %83 = load ptr, ptr %2, align 8, !tbaa !12
  %84 = getelementptr inbounds nuw %struct._zval_struct, ptr %83, i32 0, i32 0
  %85 = load ptr, ptr %84, align 8, !tbaa !11
  %86 = getelementptr inbounds nuw %struct._zend_object, ptr %85, i32 0, i32 4
  %87 = load ptr, ptr %86, align 8, !tbaa !22
  %88 = getelementptr inbounds nuw %struct._zend_object_handlers, ptr %87, i32 0, i32 13
  %89 = load ptr, ptr %88, align 8, !tbaa !92
  %90 = load ptr, ptr %2, align 8, !tbaa !12
  %91 = getelementptr inbounds nuw %struct._zval_struct, ptr %90, i32 0, i32 0
  %92 = load ptr, ptr %91, align 8, !tbaa !11
  %93 = call ptr %89(ptr noundef %92)
  %94 = load ptr, ptr @zend_known_strings, align 8, !tbaa !86
  %95 = getelementptr inbounds ptr, ptr %94, i64 17
  %96 = load ptr, ptr %95, align 8, !tbaa !14
  %97 = call ptr @zend_hash_add_new(ptr noundef %93, ptr noundef %96, ptr noundef %6)
  call void @llvm.lifetime.end.p0(i64 16, ptr %6) #20
  br label %98

98:                                               ; preds = %81, %58, %11, %57
  ret void
}