; Function Attrs: nounwind uwtable
define dso_local void @convert_to_object(ptr noundef %0) local_unnamed_addr #1 {
  %2 = alloca %struct._zval_struct, align 8
  %3 = getelementptr inbounds nuw i8, ptr %0, i64 8
  %4 = getelementptr inbounds nuw i8, ptr %0, i64 9
  br label %zend_unwrap_reference.exit

zend_unwrap_reference.exit:                       ; preds = %zend_unwrap_reference.exit.backedge, %1
  %5 = load i8, ptr %3, align 8, !tbaa !4
  switch i8 %5, label %49 [
    i8 7, label %6
    i8 8, label %.loopexit
    i8 1, label %25
    i8 10, label %26
  ]

6:                                                ; preds = %zend_unwrap_reference.exit
  %7 = load ptr, ptr %0, align 8, !tbaa !4
  %8 = tail call ptr @zend_symtable_to_proptable(ptr noundef %7) #28
  %9 = getelementptr inbounds nuw i8, ptr %8, i64 4
  %10 = load i32, ptr %9, align 4, !tbaa !4
  %11 = and i32 %10, 64
  %.not = icmp eq i32 %11, 0
  br i1 %.not, label %14, label %12

12:                                               ; preds = %6
  %13 = tail call ptr @zend_array_dup(ptr noundef nonnull %8) #28
  br label %21

14:                                               ; preds = %6
  %15 = load ptr, ptr %0, align 8, !tbaa !4
  %.not26 = icmp eq ptr %8, %15
  br i1 %.not26, label %17, label %16

16:                                               ; preds = %14
  tail call void @zval_ptr_dtor(ptr noundef nonnull %0) #28
  br label %21

17:                                               ; preds = %14
  %18 = load i32, ptr %8, align 4, !tbaa !7
  %19 = icmp ne i32 %18, 0
  tail call void @llvm.assume(i1 %19)
  %20 = add i32 %18, -1
  store i32 %20, ptr %8, align 4, !tbaa !7
  br label %21

21:                                               ; preds = %16, %17, %12
  %.0 = phi ptr [ %13, %12 ], [ %8, %16 ], [ %8, %17 ]
  %22 = load ptr, ptr @zend_standard_class_def, align 8, !tbaa !80
  %23 = tail call ptr @zend_objects_new(ptr noundef %22) #28
  %24 = getelementptr inbounds nuw i8, ptr %23, i64 32
  store ptr %.0, ptr %24, align 8, !tbaa !81
  store ptr %23, ptr %0, align 8, !tbaa !4
  store i32 776, ptr %3, align 8, !tbaa !4
  br label %.loopexit

25:                                               ; preds = %zend_unwrap_reference.exit
  tail call void @object_init(ptr noundef nonnull %0) #28
  br label %.loopexit

26:                                               ; preds = %zend_unwrap_reference.exit
  %27 = load ptr, ptr %0, align 8, !tbaa !4
  %28 = load i32, ptr %27, align 4, !tbaa !7
  %29 = icmp eq i32 %28, 1
  br i1 %29, label %30, label %35

30:                                               ; preds = %26
  %31 = getelementptr inbounds nuw i8, ptr %27, i64 8
  %32 = load ptr, ptr %31, align 8, !tbaa !4
  %33 = getelementptr inbounds nuw i8, ptr %27, i64 16
  %34 = load i32, ptr %33, align 8, !tbaa !4
  store ptr %32, ptr %0, align 8, !tbaa !4
  store i32 %34, ptr %3, align 8, !tbaa !4
  tail call void @_efree_32(ptr noundef nonnull %27) #28
  br label %zend_unwrap_reference.exit.backedge

zend_unwrap_reference.exit.backedge:              ; preds = %30, %35, %46
  br label %zend_unwrap_reference.exit

35:                                               ; preds = %26
  %36 = load i8, ptr %4, align 1, !tbaa !4
  %37 = icmp ne i8 %36, 0
  tail call void @llvm.assume(i1 %37)
  %38 = icmp ne i32 %28, 0
  tail call void @llvm.assume(i1 %38)
  %39 = add i32 %28, -1
  store i32 %39, ptr %27, align 4, !tbaa !7
  %40 = load ptr, ptr %0, align 8, !tbaa !4
  %41 = getelementptr inbounds nuw i8, ptr %40, i64 8
  %42 = load ptr, ptr %41, align 8, !tbaa !4
  %43 = getelementptr inbounds nuw i8, ptr %40, i64 16
  %44 = load i32, ptr %43, align 8, !tbaa !4
  store ptr %42, ptr %0, align 8, !tbaa !4
  store i32 %44, ptr %3, align 8, !tbaa !4
  %45 = and i32 %44, 65280
  %.not.i = icmp eq i32 %45, 0
  br i1 %.not.i, label %zend_unwrap_reference.exit.backedge, label %46

46:                                               ; preds = %35
  %47 = load i32, ptr %42, align 4, !tbaa !7
  %48 = add i32 %47, 1
  store i32 %48, ptr %42, align 4, !tbaa !7
  br label %zend_unwrap_reference.exit.backedge

49:                                               ; preds = %zend_unwrap_reference.exit
  call void @llvm.lifetime.start.p0(i64 16, ptr nonnull %2) #28
  %50 = load ptr, ptr %0, align 8, !tbaa !4
  %51 = load i32, ptr %3, align 8, !tbaa !4
  store ptr %50, ptr %2, align 8, !tbaa !4
  %52 = getelementptr inbounds nuw i8, ptr %2, i64 8
  store i32 %51, ptr %52, align 8, !tbaa !4
  tail call void @object_init(ptr noundef nonnull %0) #28
  %53 = load ptr, ptr %0, align 8, !tbaa !4
  %54 = getelementptr inbounds nuw i8, ptr %53, i64 24
  %55 = load ptr, ptr %54, align 8, !tbaa !16
  %56 = getelementptr inbounds nuw i8, ptr %55, i64 104
  %57 = load ptr, ptr %56, align 8, !tbaa !83
  %58 = tail call ptr %57(ptr noundef %53) #28
  %59 = load ptr, ptr @zend_known_strings, align 8, !tbaa !77
  %60 = getelementptr inbounds nuw i8, ptr %59, i64 136
  %61 = load ptr, ptr %60, align 8, !tbaa !74
  %62 = call ptr @zend_hash_add_new(ptr noundef %58, ptr noundef %61, ptr noundef nonnull %2) #28
  call void @llvm.lifetime.end.p0(i64 16, ptr nonnull %2) #28
  br label %.loopexit

.loopexit:                                        ; preds = %zend_unwrap_reference.exit, %49, %25, %21
  ret void
}